target datalayout = "e-m:e-p270:32:32-p271:32:32-p272:64:64-i64:64-i128:128-f80:128-n8:16:32:64-S128"
target triple = "x86_64-pc-linux-gnu"

%struct.pe_image_file_hdr = type { i32, i16, i16, i32, i32, i32, i16, i16 }
%struct.pe_image_optional_hdr64 = type { i16, i8, i8, i32, i32, i32, i32, i32, i64, i32, i32, i16, i16, i16, i16, i16, i16, i32, i32, i32, i32, i16, i16, i64, i64, i64, i64, i32, i32 }
%struct.pe_image_data_dir = type { i32, i32 }
%struct.cli_bc_ctx = type { i8, i16, i32, ptr, ptr, i32, i32, ptr, ptr, ptr, i32, i32, i64, ptr, ptr, ptr, %struct.cli_bc_hooks, %struct.cli_exe_info, [64 x i32], [64 x i32], i32, ptr, ptr, i32, i32, i32, i32, ptr, i32, ptr, ptr, i32, i32, i32, i32, i32, i32, ptr, ptr, ptr, ptr, ptr, ptr, ptr, i32, i32, i32, i32, ptr, ptr, ptr, ptr, ptr, i32, i32, i32, i32, ptr, ptr, ptr, ptr, i32, i32, i32, ptr, i32, ptr, i32, i32, ptr, i32 }
%struct.cli_bc_hooks = type { ptr, ptr, ptr, ptr, ptr }
%struct.cli_exe_info = type { ptr, i32, i32, i16, i32, i32, %struct.cli_hashset, i32, i32, i32, i32, i32, i32, i32, i32, i32, %struct.pe_image_file_hdr, %union.anon, [16 x %struct.pe_image_data_dir] }
%struct.cli_hashset = type { ptr, ptr, ptr, i32, i32, i32, i32 }
%union.anon = type { %struct.pe_image_optional_hdr64 }
%struct.cli_bc_func = type { i8, i16, i32, i32, i32, i32, i16, i16, ptr, i32, ptr, ptr, ptr, ptr }

@.str.4 = private unnamed_addr constant [41 x i8] c"bytecode: param index out of bounds: %u\0A\00", align 1
@.str.5 = private unnamed_addr constant [35 x i8] c"bytecode: parameter type mismatch\0A\00", align 1

; Function Attrs: nounwind uwtable
define internal zeroext i1 @type_isint(i16 noundef zeroext %0) #0 {
  %2 = alloca i16, align 2
  store i16 %0, ptr %2, align 2
  %3 = load i16, ptr %2, align 2
  %4 = zext i16 %3 to i32
  %5 = icmp sgt i32 %4, 0
  br i1 %5, label %6, label %10

6:                                                ; preds = %1
  %7 = load i16, ptr %2, align 2
  %8 = zext i16 %7 to i32
  %9 = icmp sle i32 %8, 64
  br label %10

10:                                               ; preds = %6, %1
  %11 = phi i1 [ false, %1 ], [ %9, %6 ]
  ret i1 %11
}

; Function Attrs: nounwind uwtable
define i32 @cli_bytecode_context_setparam_int(ptr noundef %0, i32 noundef %1, i64 noundef %2) #0 {
  %4 = alloca i32, align 4
  %5 = alloca ptr, align 8
  %6 = alloca i32, align 4
  %7 = alloca i64, align 8
  store ptr %0, ptr %5, align 8
  store i32 %1, ptr %6, align 4
  store i64 %2, ptr %7, align 8
  %8 = load i32, ptr %6, align 4
  %9 = load ptr, ptr %5, align 8
  %10 = getelementptr inbounds %struct.cli_bc_ctx, ptr %9, i32 0, i32 2
  %11 = load i32, ptr %10, align 4
  %12 = icmp uge i32 %8, %11
  br i1 %12, label %13, label %15

13:                                               ; preds = %3
  %14 = load i32, ptr %6, align 4
  call void (ptr, ...) @cli_errmsg(ptr noundef @.str.4, i32 noundef %14)
  store i32 3, ptr %4, align 4
  br label %96

15:                                               ; preds = %3
  %16 = load ptr, ptr %5, align 8
  %17 = getelementptr inbounds %struct.cli_bc_ctx, ptr %16, i32 0, i32 4
  %18 = load ptr, ptr %17, align 8
  %19 = getelementptr inbounds %struct.cli_bc_func, ptr %18, i32 0, i32 8
  %20 = load ptr, ptr %19, align 8
  %21 = load i32, ptr %6, align 4
  %22 = zext i32 %21 to i64
  %23 = getelementptr inbounds i16, ptr %20, i64 %22
  %24 = load i16, ptr %23, align 2
  %25 = call zeroext i1 @type_isint(i16 noundef zeroext %24)
  br i1 %25, label %27, label %26

26:                                               ; preds = %15
  call void (ptr, ...) @cli_errmsg(ptr noundef @.str.5)
  store i32 3, ptr %4, align 4
  br label %96

27:                                               ; preds = %15
  %28 = load ptr, ptr %5, align 8
  %29 = getelementptr inbounds %struct.cli_bc_ctx, ptr %28, i32 0, i32 7
  %30 = load ptr, ptr %29, align 8
  %31 = load i32, ptr %6, align 4
  %32 = zext i32 %31 to i64
  %33 = getelementptr inbounds i16, ptr %30, i64 %32
  %34 = load i16, ptr %33, align 2
  %35 = zext i16 %34 to i32
  switch i32 %35, label %95 [
    i32 1, label %36
    i32 2, label %51
    i32 4, label %66
    i32 8, label %81
  ]

36:                                               ; preds = %27
  %37 = load i64, ptr %7, align 8
  %38 = trunc i64 %37 to i8
  %39 = load ptr, ptr %5, align 8
  %40 = getelementptr inbounds %struct.cli_bc_ctx, ptr %39, i32 0, i32 8
  %41 = load ptr, ptr %40, align 8
  %42 = load ptr, ptr %5, align 8
  %43 = getelementptr inbounds %struct.cli_bc_ctx, ptr %42, i32 0, i32 9
  %44 = load ptr, ptr %43, align 8
  %45 = load i32, ptr %6, align 4
  %46 = zext i32 %45 to i64
  %47 = getelementptr inbounds i32, ptr %44, i64 %46
  %48 = load i32, ptr %47, align 4
  %49 = zext i32 %48 to i64
  %50 = getelementptr inbounds i8, ptr %41, i64 %49
  store i8 %38, ptr %50, align 1
  br label %95

51:                                               ; preds = %27
  %52 = load i64, ptr %7, align 8
  %53 = trunc i64 %52 to i16
  %54 = load ptr, ptr %5, align 8
  %55 = getelementptr inbounds %struct.cli_bc_ctx, ptr %54, i32 0, i32 8
  %56 = load ptr, ptr %55, align 8
  %57 = load ptr, ptr %5, align 8
  %58 = getelementptr inbounds %struct.cli_bc_ctx, ptr %57, i32 0, i32 9
  %59 = load ptr, ptr %58, align 8
  %60 = load i32, ptr %6, align 4
  %61 = zext i32 %60 to i64
  %62 = getelementptr inbounds i32, ptr %59, i64 %61
  %63 = load i32, ptr %62, align 4
  %64 = zext i32 %63 to i64
  %65 = getelementptr inbounds i8, ptr %56, i64 %64
  store i16 %53, ptr %65, align 2
  br label %95

66:                                               ; preds = %27
  %67 = load i64, ptr %7, align 8
  %68 = trunc i64 %67 to i32
  %69 = load ptr, ptr %5, align 8
  %70 = getelementptr inbounds %struct.cli_bc_ctx, ptr %69, i32 0, i32 8
  %71 = load ptr, ptr %70, align 8
  %72 = load ptr, ptr %5, align 8
  %73 = getelementptr inbounds %struct.cli_bc_ctx, ptr %72, i32 0, i32 9
  %74 = load ptr, ptr %73, align 8
  %75 = load i32, ptr %6, align 4
  %76 = zext i32 %75 to i64
  %77 = getelementptr inbounds i32, ptr %74, i64 %76
  %78 = load i32, ptr %77, align 4
  %79 = zext i32 %78 to i64
  %80 = getelementptr inbounds i8, ptr %71, i64 %79
  store i32 %68, ptr %80, align 4
  br label %95

81:                                               ; preds = %27
  %82 = load i64, ptr %7, align 8
  %83 = load ptr, ptr %5, align 8
  %84 = getelementptr inbounds %struct.cli_bc_ctx, ptr %83, i32 0, i32 8
  %85 = load ptr, ptr %84, align 8
  %86 = load ptr, ptr %5, align 8
  %87 = getelementptr inbounds %struct.cli_bc_ctx, ptr %86, i32 0, i32 9
  %88 = load ptr, ptr %87, align 8
  %89 = load i32, ptr %6, align 4
  %90 = zext i32 %89 to i64
  %91 = getelementptr inbounds i32, ptr %88, i64 %90
  %92 = load i32, ptr %91, align 4
  %93 = zext i32 %92 to i64
  %94 = getelementptr inbounds i8, ptr %85, i64 %93
  store i64 %82, ptr %94, align 8
  br label %95

95:                                               ; preds = %81, %66, %51, %36, %27
  store i32 0, ptr %4, align 4
  br label %96

96:                                               ; preds = %95, %26, %13
  %97 = load i32, ptr %4, align 4
  ret i32 %97
}