; Function Attrs: nounwind uwtable
define noundef i32 @cli_bytecode_context_setparam_int(ptr nocapture noundef readonly %0, i32 noundef %1, i64 noundef %2) local_unnamed_addr #0 {
  %4 = getelementptr inbounds i8, ptr %0, i64 4
  %5 = load i32, ptr %4, align 4
  %.not = icmp ugt i32 %5, %1
  br i1 %.not, label %7, label %6

6:                                                ; preds = %3
  tail call void (ptr, ...) @cli_errmsg(ptr noundef nonnull @.str.4, i32 noundef %1) #25
  br label %62

7:                                                ; preds = %3
  %8 = getelementptr inbounds i8, ptr %0, i64 16
  %9 = load ptr, ptr %8, align 8
  %10 = getelementptr inbounds i8, ptr %9, i64 24
  %11 = load ptr, ptr %10, align 8
  %12 = zext i32 %1 to i64
  %13 = getelementptr inbounds i16, ptr %11, i64 %12
  %14 = load i16, ptr %13, align 2
  %15 = add i16 %14, -1
  %16 = icmp ult i16 %15, 64
  br i1 %16, label %18, label %17

17:                                               ; preds = %7
  tail call void (ptr, ...) @cli_errmsg(ptr noundef nonnull @.str.5) #25
  br label %62

18:                                               ; preds = %7
  %19 = getelementptr inbounds i8, ptr %0, i64 32
  %20 = load ptr, ptr %19, align 8
  %21 = getelementptr inbounds i16, ptr %20, i64 %12
  %22 = load i16, ptr %21, align 2
  switch i16 %22, label %62 [
    i16 1, label %23
    i16 2, label %33
    i16 4, label %43
    i16 8, label %53
  ]

23:                                               ; preds = %18
  %24 = trunc i64 %2 to i8
  %25 = getelementptr inbounds i8, ptr %0, i64 40
  %26 = load ptr, ptr %25, align 8
  %27 = getelementptr inbounds i8, ptr %0, i64 48
  %28 = load ptr, ptr %27, align 8
  %29 = getelementptr inbounds i32, ptr %28, i64 %12
  %30 = load i32, ptr %29, align 4
  %31 = zext i32 %30 to i64
  %32 = getelementptr inbounds i8, ptr %26, i64 %31
  store i8 %24, ptr %32, align 1
  br label %62

33:                                               ; preds = %18
  %34 = trunc i64 %2 to i16
  %35 = getelementptr inbounds i8, ptr %0, i64 40
  %36 = load ptr, ptr %35, align 8
  %37 = getelementptr inbounds i8, ptr %0, i64 48
  %38 = load ptr, ptr %37, align 8
  %39 = getelementptr inbounds i32, ptr %38, i64 %12
  %40 = load i32, ptr %39, align 4
  %41 = zext i32 %40 to i64
  %42 = getelementptr inbounds i8, ptr %36, i64 %41
  store i16 %34, ptr %42, align 2
  br label %62

43:                                               ; preds = %18
  %44 = trunc i64 %2 to i32
  %45 = getelementptr inbounds i8, ptr %0, i64 40
  %46 = load ptr, ptr %45, align 8
  %47 = getelementptr inbounds i8, ptr %0, i64 48
  %48 = load ptr, ptr %47, align 8
  %49 = getelementptr inbounds i32, ptr %48, i64 %12
  %50 = load i32, ptr %49, align 4
  %51 = zext i32 %50 to i64
  %52 = getelementptr inbounds i8, ptr %46, i64 %51
  store i32 %44, ptr %52, align 4
  br label %62

53:                                               ; preds = %18
  %54 = getelementptr inbounds i8, ptr %0, i64 40
  %55 = load ptr, ptr %54, align 8
  %56 = getelementptr inbounds i8, ptr %0, i64 48
  %57 = load ptr, ptr %56, align 8
  %58 = getelementptr inbounds i32, ptr %57, i64 %12
  %59 = load i32, ptr %58, align 4
  %60 = zext i32 %59 to i64
  %61 = getelementptr inbounds i8, ptr %55, i64 %60
  store i64 %2, ptr %61, align 8
  br label %62

62:                                               ; preds = %18, %23, %33, %43, %53, %17, %6
  %.0 = phi i32 [ 3, %6 ], [ 3, %17 ], [ 0, %53 ], [ 0, %43 ], [ 0, %33 ], [ 0, %23 ], [ 0, %18 ]
  ret i32 %.0
}